target datalayout = "e-m:e-p270:32:32-p271:32:32-p272:64:64-i64:64-i128:128-f80:128-n8:16:32:64-S128"
target triple = "x86_64-pc-linux-gnu"

%class.anon.82 = type { i8 }
%"class.pbrt::Point2.84" = type { %"class.pbrt::Tuple2.85" }
%"class.pbrt::Tuple2.85" = type { i32, i32 }

@.str.135 = private unnamed_addr constant [52 x i8] c"Intersections/Ray-bilinear patch intersection tests\00", align 1
@_ZN4pbrtL8nBLPHitsE = internal thread_local global i64 0, align 8
@_ZN4pbrtL11nBLPHitsSumE = internal thread_local global i64 0, align 8
@_ZN4pbrtL9nBLPTestsE = internal thread_local global i64 0, align 8
@_ZN4pbrtL12nBLPTestsSumE = internal thread_local global i64 0, align 8

; Function Attrs: inlinehint mustprogress uwtable
define internal void @"_ZNK4pbrt4$_12clENS_6Point2IiEEiRNS_21PixelStatsAccumulatorE"(ptr noundef nonnull align 1 dereferenceable(1) %0, i64 %1, i32 noundef %2, ptr noundef nonnull align 8 dereferenceable(8) %3) #10 align 2 {
  %5 = alloca %"class.pbrt::Point2.84", align 4
  %6 = alloca ptr, align 8
  %7 = alloca i32, align 4
  %8 = alloca ptr, align 8
  %9 = alloca %"class.pbrt::Point2.84", align 4
  %10 = getelementptr inbounds nuw %"class.pbrt::Point2.84", ptr %5, i32 0, i32 0
  store i64 %1, ptr %10, align 4
  store ptr %0, ptr %6, align 8, !tbaa !13
  store i32 %2, ptr %7, align 4, !tbaa !60
  store ptr %3, ptr %8, align 8, !tbaa !475
  %11 = load ptr, ptr %8, align 8, !tbaa !475
  call void @llvm.memcpy.p0.p0.i64(ptr align 4 %9, ptr align 4 %5, i64 8, i1 false)
  %12 = load i32, ptr %7, align 4, !tbaa !60
  %13 = call align 8 ptr @llvm.threadlocal.address.p0(ptr align 8 @_ZN4pbrtL8nBLPHitsE)
  %14 = load i64, ptr %13, align 8, !tbaa !146
  %15 = call align 8 ptr @llvm.threadlocal.address.p0(ptr align 8 @_ZN4pbrtL9nBLPTestsE)
  %16 = load i64, ptr %15, align 8, !tbaa !146
  %17 = getelementptr inbounds nuw %"class.pbrt::Point2.84", ptr %9, i32 0, i32 0
  %18 = load i64, ptr %17, align 4
  call void @_ZN4pbrt21PixelStatsAccumulator11ReportRatioENS_6Point2IiEEiPKcll(ptr noundef nonnull align 8 dereferenceable(8) %11, i64 %18, i32 noundef %12, ptr noundef @.str.135, i64 noundef %14, i64 noundef %16)
  %19 = call align 8 ptr @llvm.threadlocal.address.p0(ptr align 8 @_ZN4pbrtL8nBLPHitsE)
  %20 = load i64, ptr %19, align 8, !tbaa !146
  %21 = call align 8 ptr @llvm.threadlocal.address.p0(ptr align 8 @_ZN4pbrtL11nBLPHitsSumE)
  %22 = load i64, ptr %21, align 8, !tbaa !146
  %23 = add nsw i64 %22, %20
  store i64 %23, ptr %21, align 8, !tbaa !146
  %24 = call align 8 ptr @llvm.threadlocal.address.p0(ptr align 8 @_ZN4pbrtL9nBLPTestsE)
  %25 = load i64, ptr %24, align 8, !tbaa !146
  %26 = call align 8 ptr @llvm.threadlocal.address.p0(ptr align 8 @_ZN4pbrtL12nBLPTestsSumE)
  %27 = load i64, ptr %26, align 8, !tbaa !146
  %28 = add nsw i64 %27, %25
  store i64 %28, ptr %26, align 8, !tbaa !146
  %29 = call align 8 ptr @llvm.threadlocal.address.p0(ptr align 8 @_ZN4pbrtL8nBLPHitsE)
  store i64 0, ptr %29, align 8, !tbaa !146
  %30 = call align 8 ptr @llvm.threadlocal.address.p0(ptr align 8 @_ZN4pbrtL9nBLPTestsE)
  store i64 0, ptr %30, align 8, !tbaa !146
  ret void
}

; Function Attrs: inlinehint mustprogress uwtable
define internal void @"_ZN4pbrt4$_128__invokeENS_6Point2IiEEiRNS_21PixelStatsAccumulatorE"(i64 %0, i32 noundef %1, ptr noundef nonnull align 8 dereferenceable(8) %2) #10 align 2 {
  %4 = alloca %"class.pbrt::Point2.84", align 4
  %5 = alloca i32, align 4
  %6 = alloca ptr, align 8
  %7 = alloca %class.anon.82, align 1
  %8 = getelementptr inbounds nuw %"class.pbrt::Point2.84", ptr %4, i32 0, i32 0
  store i64 %0, ptr %8, align 4
  store i32 %1, ptr %5, align 4, !tbaa !60
  store ptr %2, ptr %6, align 8, !tbaa !475
  %9 = load i32, ptr %5, align 4, !tbaa !60
  %10 = load ptr, ptr %6, align 8
  %11 = getelementptr inbounds nuw %"class.pbrt::Point2.84", ptr %4, i32 0, i32 0
  %12 = load i64, ptr %11, align 4
  call void @"_ZNK4pbrt4$_12clENS_6Point2IiEEiRNS_21PixelStatsAccumulatorE"(ptr noundef nonnull align 1 dereferenceable(1) %7, i64 %12, i32 noundef %9, ptr noundef nonnull align 8 dereferenceable(8) %10)
  ret void
}